(dp0
S'test11, 01/30/2021, 21:48:34'
p1
I4
sS'joshua, 01/30/2021, 22:24:17'
p2
I5
sS'test13, 01/30/2021, 21:50:21'
p3
I4
sS'test4, 01/30/2021, 21:45:06'
p4
I4
sS'test4, 01/30/2021, 21:43:59'
p5
I8
sS'test9, 01/30/2021, 21:46:42'
p6
I0
sS'test7, 01/30/2021, 21:46:10'
p7
I4
sS'test10, 01/30/2021, 21:47:19'
p8
I6
sS'test5, 01/30/2021, 21:45:40'
p9
I8
sS'test1, 01/30/2021, 21:44:29'
p10
I8
s.