(dp0
S'joshua, 01/30/2021, 22:24:17'
p1
I5
sS'joshua, 01/30/2021, 23:36:52'
p2
I51
sS'test4, 01/30/2021, 21:45:06'
p3
I4
sS'test4, 01/30/2021, 21:43:59'
p4
I8
sS'test9, 01/30/2021, 21:46:42'
p5
I0
sS'test7, 01/30/2021, 21:46:10'
p6
I4
sS'test10, 01/30/2021, 21:47:19'
p7
I6
sS'test5, 01/30/2021, 21:45:40'
p8
I8
sS'harry yu, 01/30/2021, 23:39:48'
p9
I8
sS'test1, 01/30/2021, 21:44:29'
p10
I8
s.